(dp0
S'METTS MARK'
p1
(dp2
S'percent_messages_to_poi'
p3
F0.034482758620689655
sS'percent_messages_from_poi'
p4
F0.04708798017348203
sS'total_payments'
p5
F1061827.0
sS'bonus'
p6
F600000.0
sS'total_stock_value'
p7
F585062.0
sS'shared_receipt_with_poi'
p8
F702.0
sS'exercised_stock_options'
p9
F2959559.2574257427
sS'poi'
p10
I00
sS'expenses'
p11
F94299.0
sS'restricted_stock'
p12
F585062.0
ssS'BAXTER JOHN C'
p13
(dp14
g3
F0.18405548201274122
sg4
F0.03796297849889601
sg5
F5634343.0
sg6
F1200000.0
sg7
F10623258.0
sg8
F1176.4651162790697
sg9
F6680544.0
sg10
I00
sg11
F11200.0
sg12
F3942714.0
ssS'ELLIOTT STEVEN'
p15
(dp16
g3
F0.18405548201274122
sg4
F0.03796297849889601
sg5
F211725.0
sg6
F350000.0
sg7
F6678735.0
sg8
F1176.4651162790697
sg9
F4890344.0
sg10
I00
sg11
F78552.0
sg12
F1788391.0
ssS'CORDES WILLIAM R'
p17
(dp18
g3
F0.0
sg4
F0.013089005235602094
sg5
F2623421.1774193547
sg6
F1201773.0740740742
sg7
F1038185.0
sg8
F58.0
sg9
F651850.0
sg10
I00
sg11
F54192.01063829787
sg12
F386335.0
ssS'HANNON KEVIN P'
p19
(dp20
g3
F0.65625
sg4
F0.03062200956937799
sg5
F288682.0
sg6
F1500000.0
sg7
F6391065.0
sg8
F1035.0
sg9
F5538001.0
sg10
I01
sg11
F34039.0
sg12
F853064.0
ssS'MORDAUNT KRISTINA M'
p21
(dp22
g3
F0.18405548201274122
sg4
F0.03796297849889601
sg5
F628522.0
sg6
F325000.0
sg7
F208510.0
sg8
F1176.4651162790697
sg9
F2959559.2574257427
sg10
I00
sg11
F35018.0
sg12
F208510.0
ssS'MEYER ROCKFORD G'
p23
(dp24
g3
F0.0
sg4
F0.0
sg5
F1848227.0
sg6
F1201773.0740740742
sg7
F955873.0
sg8
F22.0
sg9
F493489.0
sg10
I00
sg11
F54192.01063829787
sg12
F462384.0
ssS'MCMAHON JEFFREY'
p25
(dp26
g3
F0.5416666666666666
sg4
F0.024628450106157114
sg5
F4099771.0
sg6
F2600000.0
sg7
F1662855.0
sg8
F2228.0
sg9
F1104054.0
sg10
I00
sg11
F137108.0
sg12
F558801.0
ssS'HORTON STANLEY C'
p27
(dp28
g3
F0.013979496738117428
sg4
F0.01872340425531915
sg5
F3131860.0
sg6
F1201773.0740740742
sg7
F7256648.0
sg8
F1074.0
sg9
F5210569.0
sg10
I00
sg11
F54192.01063829787
sg12
F2046079.0
ssS'PIPER GREGORY F'
p29
(dp30
g3
F0.21621621621621623
sg4
F0.049273021001615507
sg5
F1737629.0
sg6
F400000.0
sg7
F880290.0
sg8
F742.0
sg9
F880290.0
sg10
I00
sg11
F43057.0
sg12
F409554.0
ssS'HUMPHREY GENE E'
p31
(dp32
g3
F1.0
sg4
F0.078125
sg5
F3100224.0
sg6
F1201773.0740740742
sg7
F2282768.0
sg8
F119.0
sg9
F2282768.0
sg10
I00
sg11
F4994.0
sg12
F1147424.0917431193
ssS'UMANOFF ADAM S'
p33
(dp34
g3
F0.0
sg4
F0.10810810810810811
sg5
F1130461.0
sg6
F788750.0
sg7
F3352073.024
sg8
F41.0
sg9
F2959559.2574257427
sg10
I00
sg11
F53122.0
sg12
F1147424.0917431193
ssS'BLACHMAN JEREMY M'
p35
(dp36
g3
F0.14285714285714285
sg4
F0.010101010101010102
sg5
F2014835.0
sg6
F850000.0
sg7
F954354.0
sg8
F2326.0
sg9
F765313.0
sg10
I00
sg11
F84208.0
sg12
F189041.0
ssS'SUNDE MARTIN'
p37
(dp38
g3
F0.34210526315789475
sg4
F0.013978088401964487
sg5
F1545059.0
sg6
F700000.0
sg7
F698920.0
sg8
F2565.0
sg9
F2959559.2574257427
sg10
I00
sg11
F54192.01063829787
sg12
F698920.0
ssS'GIBBS DANA R'
p39
(dp40
g3
F0.0
sg4
F0.0
sg5
F966522.0
sg6
F1201773.0740740742
sg7
F2218275.0
sg8
F23.0
sg9
F2218275.0
sg10
I00
sg11
F54192.01063829787
sg12
F1147424.0917431193
ssS'LOWRY CHARLES P'
p41
(dp42
g3
F0.18405548201274122
sg4
F0.03796297849889601
sg5
F2623421.1774193547
sg6
F1201773.0740740742
sg7
F372205.0
sg8
F1176.4651162790697
sg9
F372205.0
sg10
I00
sg11
F54192.01063829787
sg12
F153686.0
ssS'COLWELL WESLEY'
p43
(dp44
g3
F0.275
sg4
F0.13651877133105803
sg5
F1490344.0
sg6
F1200000.0
sg7
F698242.0
sg8
F1132.0
sg9
F2959559.2574257427
sg10
I01
sg11
F16514.0
sg12
F698242.0
ssS'MULLER MARK S'
p45
(dp46
g3
F0.0
sg4
F0.08823529411764706
sg5
F3202070.0
sg6
F1100000.0
sg7
F1416848.0
sg8
F114.0
sg9
F1056320.0
sg10
I00
sg11
F54192.01063829787
sg12
F360528.0
ssS'JACKSON CHARLENE R'
p47
(dp48
g3
F0.3392857142857143
sg4
F0.09689922480620156
sg5
F551174.0
sg6
F250000.0
sg7
F725735.0
sg8
F117.0
sg9
F185063.0
sg10
I00
sg11
F10181.0
sg12
F540672.0
ssS'WESTFAHL RICHARD K'
p49
(dp50
g3
F0.18405548201274122
sg4
F0.03796297849889601
sg5
F762135.0
sg6
F1201773.0740740742
sg7
F384930.0
sg8
F1176.4651162790697
sg9
F2959559.2574257427
sg10
I00
sg11
F51870.0
sg12
F384930.0
ssS'WALTERS GARETH W'
p51
(dp52
g3
F0.18405548201274122
sg4
F0.03796297849889601
sg5
F87410.0
sg6
F1201773.0740740742
sg7
F1030329.0
sg8
F1176.4651162790697
sg9
F1030329.0
sg10
I00
sg11
F33785.0
sg12
F1147424.0917431193
ssS'WALLS JR ROBERT H'
p53
(dp54
g3
F0.0
sg4
F0.02533532041728763
sg5
F1798780.0
sg6
F850000.0
sg7
F5898997.0
sg8
F215.0
sg9
F4346544.0
sg10
I00
sg11
F50936.0
sg12
F1552453.0
ssS'KITCHEN LOUISE'
p55
(dp56
g3
F0.11226851851851852
sg4
F0.030222757375075255
sg5
F3471141.0
sg6
F3100000.0
sg7
F547143.0
sg8
F3669.0
sg9
F81042.0
sg10
I00
sg11
F5774.0
sg12
F466101.0
ssS'CHAN RONNIE'
p57
(dp58
g3
F0.18405548201274122
sg4
F0.03796297849889601
sg5
F2623421.1774193547
sg6
F1201773.0740740742
sg7
F3352073.024
sg8
F1176.4651162790697
sg9
F2959559.2574257427
sg10
I00
sg11
F54192.01063829787
sg12
F32460.0
ssS'BELFER ROBERT'
p59
(dp60
g3
F0.18405548201274122
sg4
F0.03796297849889601
sg5
F102500.0
sg6
F1201773.0740740742
sg7
F-44093.0
sg8
F1176.4651162790697
sg9
F3285.0
sg10
I00
sg11
F54192.01063829787
sg12
F1147424.0917431193
ssS'SHANKMAN JEFFREY A'
p61
(dp62
g3
F0.030958597538232
sg4
F0.029183483390251473
sg5
F3038702.0
sg6
F2000000.0
sg7
F2072035.0
sg8
F1730.0
sg9
F1441898.0
sg10
I00
sg11
F178979.0
sg12
F630137.0
ssS'WODRASKA JOHN'
p63
(dp64
g3
F0.18405548201274122
sg4
F0.03796297849889601
sg5
F189583.0
sg6
F1201773.0740740742
sg7
F3352073.024
sg8
F1176.4651162790697
sg9
F2959559.2574257427
sg10
I00
sg11
F54192.01063829787
sg12
F1147424.0917431193
ssS'BERGSIEKER RICHARD P'
p65
(dp66
g3
F0.0
sg4
F0.010443864229765013
sg5
F618850.0
sg6
F250000.0
sg7
F659249.0
sg8
F233.0
sg9
F2959559.2574257427
sg10
I00
sg11
F59175.0
sg12
F659249.0
ssS'URQUHART JOHN A'
p67
(dp68
g3
F0.18405548201274122
sg4
F0.03796297849889601
sg5
F228656.0
sg6
F1201773.0740740742
sg7
F3352073.024
sg8
F1176.4651162790697
sg9
F2959559.2574257427
sg10
I00
sg11
F228656.0
sg12
F1147424.0917431193
ssS'BIBI PHILIPPE A'
p69
(dp70
g3
F0.2
sg4
F0.01431238332296204
sg5
F2047593.0
sg6
F1000000.0
sg7
F1843816.0
sg8
F1336.0
sg9
F1465734.0
sg10
I00
sg11
F38559.0
sg12
F378082.0
ssS'PIRO JIM'
p71
(dp72
g3
F0.0625
sg4
F0.0
sg5
F2623421.1774193547
sg6
F1201773.0740740742
sg7
F47304.0
sg8
F3.0
sg9
F2959559.2574257427
sg10
I00
sg11
F54192.01063829787
sg12
F47304.0
ssS'RIEKER PAULA H'
p73
(dp74
g3
F0.5853658536585366
sg4
F0.02635542168674699
sg5
F1099100.0
sg6
F700000.0
sg7
F1918887.0
sg8
F1258.0
sg9
F1635238.0
sg10
I01
sg11
F33271.0
sg12
F283649.0
ssS'WHALEY DAVID A'
p75
(dp76
g3
F0.18405548201274122
sg4
F0.03796297849889601
sg5
F2623421.1774193547
sg6
F1201773.0740740742
sg7
F98718.0
sg8
F1176.4651162790697
sg9
F98718.0
sg10
I00
sg11
F54192.01063829787
sg12
F1147424.0917431193
ssS'BECK SALLY W'
p77
(dp78
g3
F0.08887865530739121
sg4
F0.01968557758031442
sg5
F969068.0
sg6
F700000.0
sg7
F126027.0
sg8
F2639.0
sg9
F2959559.2574257427
sg10
I00
sg11
F37172.0
sg12
F126027.0
ssS'HAUG DAVID L'
p79
(dp80
g3
F0.3684210526315789
sg4
F0.006980802792321117
sg5
F475.0
sg6
F1201773.0740740742
sg7
F2217299.0
sg8
F471.0
sg9
F2959559.2574257427
sg10
I00
sg11
F475.0
sg12
F2217299.0
ssS'ECHOLS JOHN B'
p81
(dp82
g3
F0.18405548201274122
sg4
F0.03796297849889601
sg5
F2692324.0
sg6
F200000.0
sg7
F1008941.0
sg8
F1176.4651162790697
sg9
F601438.0
sg10
I00
sg11
F21530.0
sg12
F407503.0
ssS'MENDELSOHN JOHN'
p83
(dp84
g3
F0.18405548201274122
sg4
F0.03796297849889601
sg5
F148.0
sg6
F1201773.0740740742
sg7
F3352073.024
sg8
F1176.4651162790697
sg9
F2959559.2574257427
sg10
I00
sg11
F148.0
sg12
F1147424.0917431193
ssS'HICKERSON GARY J'
p85
(dp86
g3
F0.037037037037037035
sg4
F0.030303030303030304
sg5
F2081796.0
sg6
F1700000.0
sg7
F441096.0
sg8
F900.0
sg9
F2959559.2574257427
sg10
I00
sg11
F98849.0
sg12
F441096.0
ssS'CLINE KENNETH W'
p87
(dp88
g3
F0.18405548201274122
sg4
F0.03796297849889601
sg5
F2623421.1774193547
sg6
F1201773.0740740742
sg7
F189518.0
sg8
F1176.4651162790697
sg9
F2959559.2574257427
sg10
I00
sg11
F54192.01063829787
sg12
F662086.0
ssS'LEWIS RICHARD'
p89
(dp90
g3
F0.0
sg4
F0.01050420168067227
sg5
F2623421.1774193547
sg6
F1201773.0740740742
sg7
F850477.0
sg8
F739.0
sg9
F850477.0
sg10
I00
sg11
F54192.01063829787
sg12
F1147424.0917431193
ssS'HAYES ROBERT E'
p91
(dp92
g3
F0.0
sg4
F0.031746031746031744
sg5
F7961.0
sg6
F1201773.0740740742
sg7
F151418.0
sg8
F50.0
sg9
F2959559.2574257427
sg10
I00
sg11
F54192.01063829787
sg12
F151418.0
ssS'KOPPER MICHAEL J'
p93
(dp94
g3
F0.18405548201274122
sg4
F0.03796297849889601
sg5
F2652612.0
sg6
F800000.0
sg7
F985032.0
sg8
F1176.4651162790697
sg9
F2959559.2574257427
sg10
I01
sg11
F118134.0
sg12
F985032.0
ssS'LEFF DANIEL P'
p95
(dp96
g3
F0.2222222222222222
sg4
F0.02374202693125443
sg5
F2664228.0
sg6
F1000000.0
sg7
F360528.0
sg8
F2672.0
sg9
F2959559.2574257427
sg10
I00
sg11
F54192.01063829787
sg12
F360528.0
ssS'LAVORATO JOHN J'
p97
(dp98
g3
F0.15899419729206962
sg4
F0.07273729163796666
sg5
F10425757.0
sg6
F8000000.0
sg7
F5167144.0
sg8
F3962.0
sg9
F4158995.0
sg10
I00
sg11
F49537.0
sg12
F1008149.0
ssS'BERBERIAN DAVID'
p99
(dp100
g3
F0.18405548201274122
sg4
F0.03796297849889601
sg5
F228474.0
sg6
F1201773.0740740742
sg7
F2493616.0
sg8
F1176.4651162790697
sg9
F1624396.0
sg10
I00
sg11
F11892.0
sg12
F869220.0
ssS'DETMERING TIMOTHY J'
p101
(dp102
g3
F0.18405548201274122
sg4
F0.03796297849889601
sg5
F1204583.0
sg6
F425000.0
sg7
F2027865.0
sg8
F1176.4651162790697
sg9
F2027865.0
sg10
I00
sg11
F52255.0
sg12
F315068.0
ssS'WAKEHAM JOHN'
p103
(dp104
g3
F0.18405548201274122
sg4
F0.03796297849889601
sg5
F213071.0
sg6
F1201773.0740740742
sg7
F3352073.024
sg8
F1176.4651162790697
sg9
F2959559.2574257427
sg10
I00
sg11
F103773.0
sg12
F1147424.0917431193
ssS'POWERS WILLIAM'
p105
(dp106
g3
F0.0
sg4
F0.0
sg5
F2623421.1774193547
sg6
F1201773.0740740742
sg7
F3352073.024
sg8
F12.0
sg9
F2959559.2574257427
sg10
I00
sg11
F54192.01063829787
sg12
F1147424.0917431193
ssS'GOLD JOSEPH'
p107
(dp108
g3
F0.18405548201274122
sg4
F0.03796297849889601
sg5
F2146973.0
sg6
F750000.0
sg7
F877611.0
sg8
F1176.4651162790697
sg9
F436515.0
sg10
I00
sg11
F54192.01063829787
sg12
F441096.0
ssS'BANNANTINE JAMES M'
p109
(dp110
g3
F0.0
sg4
F0.06890459363957598
sg5
F916197.0
sg6
F1201773.0740740742
sg7
F5243487.0
sg8
F465.0
sg9
F4046157.0
sg10
I00
sg11
F56301.0
sg12
F1757552.0
ssS'DUNCAN JOHN H'
p111
(dp112
g3
F0.18405548201274122
sg4
F0.03796297849889601
sg5
F77492.0
sg6
F1201773.0740740742
sg7
F371750.0
sg8
F1176.4651162790697
sg9
F371750.0
sg10
I00
sg11
F54192.01063829787
sg12
F1147424.0917431193
ssS'SHAPIRO RICHARD S'
p113
(dp114
g3
F0.053497942386831275
sg4
F0.0048848108786058485
sg5
F1057548.0
sg6
F650000.0
sg7
F987001.0
sg8
F4527.0
sg9
F607837.0
sg10
I00
sg11
F137767.0
sg12
F379164.0
ssS'SHERRIFF JOHN R'
p115
(dp116
g3
F0.25
sg4
F0.008785691873235017
sg5
F4335388.0
sg6
F1500000.0
sg7
F3128982.0
sg8
F2103.0
sg9
F1835558.0
sg10
I00
sg11
F54192.01063829787
sg12
F1293424.0
ssS'SHELBY REX'
p117
(dp118
g3
F0.358974358974359
sg4
F0.057777777777777775
sg5
F2003885.0
sg6
F200000.0
sg7
F2493616.0
sg8
F91.0
sg9
F1624396.0
sg10
I01
sg11
F22884.0
sg12
F869220.0
ssS'LEMAISTRE CHARLES'
p119
(dp120
g3
F0.18405548201274122
sg4
F0.03796297849889601
sg5
F87492.0
sg6
F1201773.0740740742
sg7
F412878.0
sg8
F1176.4651162790697
sg9
F412878.0
sg10
I00
sg11
F54192.01063829787
sg12
F1147424.0917431193
ssS'DEFFNER JOSEPH M'
p121
(dp122
g3
F0.05405405405405406
sg4
F0.16106442577030813
sg5
F1208649.0
sg6
F600000.0
sg7
F159211.0
sg8
F552.0
sg9
F17378.0
sg10
I00
sg11
F41626.0
sg12
F141833.0
ssS'KISHKILL JOSEPH G'
p123
(dp124
g3
F0.18405548201274122
sg4
F0.03796297849889601
sg5
F704896.0
sg6
F1201773.0740740742
sg7
F1034346.0
sg8
F1176.4651162790697
sg9
F2959559.2574257427
sg10
I00
sg11
F116335.0
sg12
F1034346.0
ssS'WHALLEY LAWRENCE G'
p125
(dp126
g3
F0.04316546762589928
sg4
F0.03090214321315833
sg5
F4677574.0
sg6
F3000000.0
sg7
F6079137.0
sg8
F3920.0
sg9
F3282960.0
sg10
I00
sg11
F57838.0
sg12
F2796177.0
ssS'MCCARTY DANNY J'
p127
(dp128
g3
F0.009302325581395349
sg4
F0.017445917655268667
sg5
F2623421.1774193547
sg6
F1201773.0740740742
sg7
F758931.0
sg8
F508.0
sg9
F664375.0
sg10
I00
sg11
F54192.01063829787
sg12
F94556.0
ssS'MCCONNELL MICHAEL S'
p129
(dp130
g3
F0.07075127644055434
sg4
F0.02763592670471613
sg5
F2101364.0
sg6
F1100000.0
sg7
F3101279.0
sg8
F2189.0
sg9
F1623010.0
sg10
I00
sg11
F81364.0
sg12
F1478269.0
ssS'DELAINEY DAVID W'
p131
(dp132
g3
F0.198435972629521
sg4
F0.02133850630455868
sg5
F4747979.0
sg6
F3000000.0
sg7
F3614261.0
sg8
F2097.0
sg9
F2291113.0
sg10
I01
sg11
F86174.0
sg12
F1323148.0
ssS'SULLIVAN-SHAKLOVITZ COLLEEN'
p133
(dp134
g3
F0.18405548201274122
sg4
F0.03796297849889601
sg5
F999356.0
sg6
F100000.0
sg7
F1362375.0
sg8
F1176.4651162790697
sg9
F1362375.0
sg10
I00
sg11
F54192.01063829787
sg12
F1147424.0917431193
ssS'WROBEL BRUCE'
p135
(dp136
g3
F0.18405548201274122
sg4
F0.03796297849889601
sg5
F2623421.1774193547
sg6
F1201773.0740740742
sg7
F139130.0
sg8
F1176.4651162790697
sg9
F139130.0
sg10
I00
sg11
F54192.01063829787
sg12
F1147424.0917431193
ssS'LINDHOLM TOD A'
p137
(dp138
g3
F0.18405548201274122
sg4
F0.03796297849889601
sg5
F875889.0
sg6
F200000.0
sg7
F3064208.0
sg8
F1176.4651162790697
sg9
F2549361.0
sg10
I00
sg11
F57727.0
sg12
F514847.0
ssS'MEYER JEROME J'
p139
(dp140
g3
F0.18405548201274122
sg4
F0.03796297849889601
sg5
F2151.0
sg6
F1201773.0740740742
sg7
F3352073.024
sg8
F1176.4651162790697
sg9
F2959559.2574257427
sg10
I00
sg11
F2151.0
sg12
F1147424.0917431193
ssS'LAY KENNETH L'
p141
(dp142
g3
F0.4444444444444444
sg4
F0.028785396676807865
sg5
F103559793.0
sg6
F7000000.0
sg7
F49110078.0
sg8
F2411.0
sg9
F34348384.0
sg10
I01
sg11
F99832.0
sg12
F14761694.0
ssS'BUTTS ROBERT H'
p143
(dp144
g3
F0.18405548201274122
sg4
F0.03796297849889601
sg5
F1271582.0
sg6
F750000.0
sg7
F417619.0
sg8
F1176.4651162790697
sg9
F2959559.2574257427
sg10
I00
sg11
F9410.0
sg12
F417619.0
ssS'OLSON CINDY K'
p145
(dp146
g3
F0.28846153846153844
sg4
F0.016891891891891893
sg5
F1321557.0
sg6
F750000.0
sg7
F2606763.0
sg8
F856.0
sg9
F1637034.0
sg10
I00
sg11
F63791.0
sg12
F969729.0
ssS'MCDONALD REBECCA'
p147
(dp148
g3
F0.07692307692307693
sg4
F0.06040268456375839
sg5
F2623421.1774193547
sg6
F1201773.0740740742
sg7
F1691366.0
sg8
F720.0
sg9
F757301.0
sg10
I00
sg11
F54192.01063829787
sg12
F934065.0
ssS'CUMBERLAND MICHAEL S'
p149
(dp150
g3
F0.18405548201274122
sg4
F0.03796297849889601
sg5
F807956.0
sg6
F325000.0
sg7
F207940.0
sg8
F1176.4651162790697
sg9
F2959559.2574257427
sg10
I00
sg11
F22344.0
sg12
F207940.0
ssS'GAHN ROBERT S'
p151
(dp152
g3
F0.18405548201274122
sg4
F0.03796297849889601
sg5
F900585.0
sg6
F509870.0
sg7
F318607.0
sg8
F1176.4651162790697
sg9
F83237.0
sg10
I00
sg11
F50080.0
sg12
F235370.0
ssS'MCCLELLAN GEORGE'
p153
(dp154
g3
F0.0
sg4
F0.02981651376146789
sg5
F1318763.0
sg6
F900000.0
sg7
F947861.0
sg8
F1469.0
sg9
F506765.0
sg10
I00
sg11
F228763.0
sg12
F441096.0
ssS'HERMANN ROBERT J'
p155
(dp156
g3
F0.18405548201274122
sg4
F0.03796297849889601
sg5
F1297461.0
sg6
F700000.0
sg7
F668132.0
sg8
F1176.4651162790697
sg9
F187500.0
sg10
I00
sg11
F48357.0
sg12
F480632.0
ssS'SCRIMSHAW MATTHEW'
p157
(dp158
g3
F0.18405548201274122
sg4
F0.03796297849889601
sg5
F2623421.1774193547
sg6
F1201773.0740740742
sg7
F759557.0
sg8
F1176.4651162790697
sg9
F759557.0
sg10
I00
sg11
F54192.01063829787
sg12
F1147424.0917431193
ssS'GATHMANN WILLIAM D'
p159
(dp160
g3
F0.18405548201274122
sg4
F0.03796297849889601
sg5
F2623421.1774193547
sg6
F1201773.0740740742
sg7
F1945360.0
sg8
F1176.4651162790697
sg9
F1753766.0
sg10
I00
sg11
F54192.01063829787
sg12
F264013.0
ssS'HAEDICKE MARK E'
p161
(dp162
g3
F0.03142709943328181
sg4
F0.04489897730107259
sg5
F3859065.0
sg6
F1150000.0
sg7
F803094.0
sg8
F1847.0
sg9
F608750.0
sg10
I00
sg11
F76169.0
sg12
F524169.0
ssS'BOWEN JR RAYMOND M'
p163
(dp164
g3
F0.5555555555555556
sg4
F0.07534983853606028
sg5
F2669589.0
sg6
F1350000.0
sg7
F252055.0
sg8
F1593.0
sg9
F2959559.2574257427
sg10
I01
sg11
F65907.0
sg12
F252055.0
ssS'GILLIS JOHN'
p165
(dp166
g3
F0.18405548201274122
sg4
F0.03796297849889601
sg5
F2623421.1774193547
sg6
F1201773.0740740742
sg7
F85641.0
sg8
F1176.4651162790697
sg9
F9803.0
sg10
I00
sg11
F54192.01063829787
sg12
F75838.0
ssS'FITZGERALD JAY L'
p167
(dp168
g3
F0.5
sg4
F0.0010683760683760685
sg5
F1414857.0
sg6
F350000.0
sg7
F1621236.0
sg8
F723.0
sg9
F664461.0
sg10
I00
sg11
F23870.0
sg12
F956775.0
ssS'MORAN MICHAEL P'
p169
(dp170
g3
F0.0
sg4
F0.0
sg5
F2623421.1774193547
sg6
F1201773.0740740742
sg7
F221141.0
sg8
F127.0
sg9
F59539.0
sg10
I00
sg11
F54192.01063829787
sg12
F161602.0
ssS'REDMOND BRIAN L'
p171
(dp172
g3
F0.22171945701357465
sg4
F0.12208258527827648
sg5
F111529.0
sg6
F1201773.0740740742
sg7
F7890324.0
sg8
F1063.0
sg9
F7509039.0
sg10
I00
sg11
F14689.0
sg12
F381285.0
ssS'BAZELIDES PHILIP J'
p173
(dp174
g3
F0.18405548201274122
sg4
F0.03796297849889601
sg5
F860136.0
sg6
F1201773.0740740742
sg7
F1599641.0
sg8
F1176.4651162790697
sg9
F1599641.0
sg10
I00
sg11
F54192.01063829787
sg12
F1147424.0917431193
ssS'BELDEN TIMOTHY N'
p175
(dp176
g3
F0.2231404958677686
sg4
F0.028532098610937303
sg5
F5501630.0
sg6
F5249999.0
sg7
F1110705.0
sg8
F5521.0
sg9
F953136.0
sg10
I01
sg11
F17355.0
sg12
F157569.0
ssS'DURAN WILLIAM D'
p177
(dp178
g3
F0.25
sg4
F0.1172566371681416
sg5
F2093263.0
sg6
F750000.0
sg7
F1640910.0
sg8
F599.0
sg9
F1451869.0
sg10
I00
sg11
F25785.0
sg12
F189041.0
ssS'THORN TERENCE H'
p179
(dp180
g3
F0.0
sg4
F0.0
sg5
F911453.0
sg6
F1201773.0740740742
sg7
F4817796.0
sg8
F73.0
sg9
F4452476.0
sg10
I00
sg11
F46145.0
sg12
F365320.0
ssS'FASTOW ANDREW S'
p181
(dp182
g3
F0.18405548201274122
sg4
F0.03796297849889601
sg5
F2424083.0
sg6
F1300000.0
sg7
F1794412.0
sg8
F1176.4651162790697
sg9
F2959559.2574257427
sg10
I01
sg11
F55921.0
sg12
F1794412.0
ssS'FOY JOE'
p183
(dp184
g3
F0.0
sg4
F0.0
sg5
F181755.0
sg6
F1201773.0740740742
sg7
F343434.0
sg8
F2.0
sg9
F343434.0
sg10
I00
sg11
F54192.01063829787
sg12
F1147424.0917431193
ssS'CALGER CHRISTOPHER F'
p185
(dp186
g3
F0.1736111111111111
sg4
F0.07659738260200154
sg5
F1639297.0
sg6
F1250000.0
sg7
F126027.0
sg8
F2188.0
sg9
F2959559.2574257427
sg10
I01
sg11
F35818.0
sg12
F126027.0
ssS'RICE KENNETH D'
p187
(dp188
g3
F0.2222222222222222
sg4
F0.04640883977900553
sg5
F505050.0
sg6
F1750000.0
sg7
F22542539.0
sg8
F864.0
sg9
F19794175.0
sg10
I01
sg11
F46950.0
sg12
F2748364.0
ssS'KAMINSKI WINCENTY J'
p189
(dp190
g3
F0.011901447661469933
sg4
F0.008899500759713479
sg5
F1086821.0
sg6
F400000.0
sg7
F976037.0
sg8
F583.0
sg9
F850010.0
sg10
I00
sg11
F83585.0
sg12
F126027.0
ssS'LOCKHART EUGENE E'
p191
(dp192
g3
F0.18405548201274122
sg4
F0.03796297849889601
sg5
F2623421.1774193547
sg6
F1201773.0740740742
sg7
F3352073.024
sg8
F1176.4651162790697
sg9
F2959559.2574257427
sg10
I00
sg11
F54192.01063829787
sg12
F1147424.0917431193
ssS'COX DAVID'
p193
(dp194
g3
F0.12121212121212122
sg4
F0.0
sg5
F1101393.0
sg6
F800000.0
sg7
F495633.0
sg8
F71.0
sg9
F117551.0
sg10
I00
sg11
F27861.0
sg12
F378082.0
ssS'OVERDYKE JR JERE C'
p195
(dp196
g3
F0.18405548201274122
sg4
F0.03796297849889601
sg5
F249787.0
sg6
F1201773.0740740742
sg7
F7307594.0
sg8
F1176.4651162790697
sg9
F5266578.0
sg10
I00
sg11
F18834.0
sg12
F2041016.0
ssS'PEREIRA PAULO V. FERRAZ'
p197
(dp198
g3
F0.18405548201274122
sg4
F0.03796297849889601
sg5
F27942.0
sg6
F1201773.0740740742
sg7
F3352073.024
sg8
F1176.4651162790697
sg9
F2959559.2574257427
sg10
I00
sg11
F27942.0
sg12
F1147424.0917431193
ssS'STABLER FRANK'
p199
(dp200
g3
F0.18405548201274122
sg4
F0.03796297849889601
sg5
F1112087.0
sg6
F500000.0
sg7
F511734.0
sg8
F1176.4651162790697
sg9
F2959559.2574257427
sg10
I00
sg11
F16514.0
sg12
F511734.0
ssS'SKILLING JEFFREY K'
p201
(dp202
g3
F0.2777777777777778
sg4
F0.0242624758753791
sg5
F8682716.0
sg6
F5600000.0
sg7
F26093672.0
sg8
F2042.0
sg9
F19250000.0
sg10
I01
sg11
F29336.0
sg12
F6843672.0
ssS'BLAKE JR. NORMAN P'
p203
(dp204
g3
F0.18405548201274122
sg4
F0.03796297849889601
sg5
F1279.0
sg6
F1201773.0740740742
sg7
F3352073.024
sg8
F1176.4651162790697
sg9
F2959559.2574257427
sg10
I00
sg11
F1279.0
sg12
F1147424.0917431193
ssS'SHERRICK JEFFREY B'
p205
(dp206
g3
F0.72
sg4
F0.0636215334420881
sg5
F2623421.1774193547
sg6
F1201773.0740740742
sg7
F1832468.0
sg8
F583.0
sg9
F1426469.0
sg10
I00
sg11
F54192.01063829787
sg12
F405999.0
ssS'PRENTICE JAMES'
p207
(dp208
g3
F0.18405548201274122
sg4
F0.03796297849889601
sg5
F564348.0
sg6
F1201773.0740740742
sg7
F1095040.0
sg8
F1176.4651162790697
sg9
F886231.0
sg10
I00
sg11
F54192.01063829787
sg12
F208809.0
ssS'GRAY RODNEY'
p209
(dp210
g3
F0.18405548201274122
sg4
F0.03796297849889601
sg5
F1146658.0
sg6
F1201773.0740740742
sg7
F3352073.024
sg8
F1176.4651162790697
sg9
F2959559.2574257427
sg10
I00
sg11
F54192.01063829787
sg12
F1147424.0917431193
ssS'PICKERING MARK R'
p211
(dp212
g3
F0.0
sg4
F0.0077951002227171495
sg5
F1386690.0
sg6
F300000.0
sg7
F28798.0
sg8
F728.0
sg9
F28798.0
sg10
I00
sg11
F31653.0
sg12
F1147424.0917431193
ssS'THE TRAVEL AGENCY IN THE PARK'
p213
(dp214
g3
F0.18405548201274122
sg4
F0.03796297849889601
sg5
F362096.0
sg6
F1201773.0740740742
sg7
F3352073.024
sg8
F1176.4651162790697
sg9
F2959559.2574257427
sg10
I00
sg11
F54192.01063829787
sg12
F1147424.0917431193
ssS'NOLES JAMES L'
p215
(dp216
g3
F0.18405548201274122
sg4
F0.03796297849889601
sg5
F774401.0
sg6
F1201773.0740740742
sg7
F368705.0
sg8
F1176.4651162790697
sg9
F2959559.2574257427
sg10
I00
sg11
F54192.01063829787
sg12
F463261.0
ssS'KEAN STEVEN J'
p217
(dp218
g3
F0.05725699067909454
sg4
F0.010976948408342482
sg5
F1747522.0
sg6
F1000000.0
sg7
F6153642.0
sg8
F3639.0
sg9
F2022048.0
sg10
I00
sg11
F41953.0
sg12
F4131594.0
ssS'FOWLER PEGGY'
p219
(dp220
g3
F0.0
sg4
F0.0
sg5
F2623421.1774193547
sg6
F1201773.0740740742
sg7
F1884748.0
sg8
F10.0
sg9
F1324578.0
sg10
I00
sg11
F54192.01063829787
sg12
F560170.0
ssS'WASAFF GEORGE'
p221
(dp222
g3
F0.23333333333333334
sg4
F0.055
sg5
F1034395.0
sg6
F325000.0
sg7
F2056427.0
sg8
F337.0
sg9
F1668260.0
sg10
I00
sg11
F54192.01063829787
sg12
F388167.0
ssS'WHITE JR THOMAS E'
p223
(dp224
g3
F0.18405548201274122
sg4
F0.03796297849889601
sg5
F1934359.0
sg6
F450000.0
sg7
F15144123.0
sg8
F1176.4651162790697
sg9
F1297049.0
sg10
I00
sg11
F81353.0
sg12
F13847074.0
ssS'CHRISTODOULOU DIOMEDES'
p225
(dp226
g3
F0.18405548201274122
sg4
F0.03796297849889601
sg5
F2623421.1774193547
sg6
F1201773.0740740742
sg7
F6077885.0
sg8
F1176.4651162790697
sg9
F5127155.0
sg10
I00
sg11
F54192.01063829787
sg12
F950730.0
ssS'ALLEN PHILLIP K'
p227
(dp228
g3
F0.029612756264236904
sg4
F0.016195727084769126
sg5
F4484442.0
sg6
F4175000.0
sg7
F1729541.0
sg8
F1407.0
sg9
F1729541.0
sg10
I00
sg11
F13868.0
sg12
F126027.0
ssS'SHARP VICTORIA T'
p229
(dp230
g3
F0.04411764705882353
sg4
F0.007653061224489796
sg5
F1576511.0
sg6
F600000.0
sg7
F494136.0
sg8
F2477.0
sg9
F281073.0
sg10
I00
sg11
F116337.0
sg12
F213063.0
ssS'JAEDICKE ROBERT'
p231
(dp232
g3
F0.18405548201274122
sg4
F0.03796297849889601
sg5
F83750.0
sg6
F1201773.0740740742
sg7
F431750.0
sg8
F1176.4651162790697
sg9
F431750.0
sg10
I00
sg11
F54192.01063829787
sg12
F44093.0
ssS'WINOKUR JR. HERBERT S'
p233
(dp234
g3
F0.18405548201274122
sg4
F0.03796297849889601
sg5
F84992.0
sg6
F1201773.0740740742
sg7
F3352073.024
sg8
F1176.4651162790697
sg9
F2959559.2574257427
sg10
I00
sg11
F1413.0
sg12
F1147424.0917431193
ssS'BROWN MICHAEL'
p235
(dp236
g3
F0.024390243902439025
sg4
F0.008748317631224764
sg5
F49288.0
sg6
F1201773.0740740742
sg7
F3352073.024
sg8
F761.0
sg9
F2959559.2574257427
sg10
I00
sg11
F49288.0
sg12
F1147424.0917431193
ssS'BADUM JAMES P'
p237
(dp238
g3
F0.18405548201274122
sg4
F0.03796297849889601
sg5
F182466.0
sg6
F1201773.0740740742
sg7
F257817.0
sg8
F1176.4651162790697
sg9
F257817.0
sg10
I00
sg11
F3486.0
sg12
F1147424.0917431193
ssS'HUGHES JAMES A'
p239
(dp240
g3
F0.14705882352941177
sg4
F0.048678720445062586
sg5
F2623421.1774193547
sg6
F1201773.0740740742
sg7
F1118394.0
sg8
F589.0
sg9
F754966.0
sg10
I00
sg11
F54192.01063829787
sg12
F363428.0
ssS'REYNOLDS LAWRENCE'
p241
(dp242
g3
F0.18405548201274122
sg4
F0.03796297849889601
sg5
F394475.0
sg6
F100000.0
sg7
F4221891.0
sg8
F1176.4651162790697
sg9
F4160672.0
sg10
I00
sg11
F8409.0
sg12
F201483.0
ssS'DIMICHELE RICHARD G'
p243
(dp244
g3
F0.18405548201274122
sg4
F0.03796297849889601
sg5
F2368151.0
sg6
F1000000.0
sg7
F8317782.0
sg8
F1176.4651162790697
sg9
F8191755.0
sg10
I00
sg11
F35812.0
sg12
F126027.0
ssS'BHATNAGAR SANJAY'
p245
(dp246
g3
F0.034482758620689655
sg4
F0.0
sg5
F15456290.0
sg6
F1201773.0740740742
sg7
F3352073.024
sg8
F463.0
sg9
F2604490.0
sg10
I00
sg11
F54192.01063829787
sg12
F-2604490.0
ssS'CARTER REBECCA C'
p247
(dp248
g3
F0.4666666666666667
sg4
F0.09294871794871795
sg5
F477557.0
sg6
F300000.0
sg7
F3352073.024
sg8
F196.0
sg9
F2959559.2574257427
sg10
I00
sg11
F54192.01063829787
sg12
F307301.0
ssS'BUCHANAN HAROLD G'
p249
(dp250
g3
F0.0
sg4
F0.0
sg5
F1054637.0
sg6
F500000.0
sg7
F1014505.0
sg8
F23.0
sg9
F825464.0
sg10
I00
sg11
F600.0
sg12
F189041.0
ssS'YEAP SOON'
p251
(dp252
g3
F0.18405548201274122
sg4
F0.03796297849889601
sg5
F55097.0
sg6
F1201773.0740740742
sg7
F192758.0
sg8
F1176.4651162790697
sg9
F192758.0
sg10
I00
sg11
F55097.0
sg12
F1147424.0917431193
ssS'MURRAY JULIA H'
p253
(dp254
g3
F0.044444444444444446
sg4
F0.005018248175182482
sg5
F812194.0
sg6
F400000.0
sg7
F597461.0
sg8
F395.0
sg9
F400478.0
sg10
I00
sg11
F57580.0
sg12
F196983.0
ssS'GARLAND C KEVIN'
p255
(dp256
g3
F0.6136363636363636
sg4
F0.04784688995215311
sg5
F1566469.0
sg6
F850000.0
sg7
F896153.0
sg8
F178.0
sg9
F636246.0
sg10
I00
sg11
F48405.0
sg12
F259907.0
ssS'DODSON KEITH'
p257
(dp258
g3
F0.21428571428571427
sg4
F0.056818181818181816
sg5
F319941.0
sg6
F70000.0
sg7
F3352073.024
sg8
F114.0
sg9
F2959559.2574257427
sg10
I00
sg11
F28164.0
sg12
F1147424.0917431193
ssS'YEAGER F SCOTT'
p259
(dp260
g3
F0.18405548201274122
sg4
F0.03796297849889601
sg5
F360300.0
sg6
F1201773.0740740742
sg7
F11884758.0
sg8
F1176.4651162790697
sg9
F8308552.0
sg10
I01
sg11
F53947.0
sg12
F3576206.0
ssS'HIRKO JOSEPH'
p261
(dp262
g3
F0.18405548201274122
sg4
F0.03796297849889601
sg5
F91093.0
sg6
F1201773.0740740742
sg7
F30766064.0
sg8
F1176.4651162790697
sg9
F30766064.0
sg10
I01
sg11
F77978.0
sg12
F1147424.0917431193
ssS'DIETRICH JANET R'
p263
(dp264
g3
F0.2222222222222222
sg4
F0.11858475894245724
sg5
F1410464.0
sg6
F600000.0
sg7
F1865087.0
sg8
F1902.0
sg9
F1550019.0
sg10
I00
sg11
F3475.0
sg12
F315068.0
ssS'DERRICK JR. JAMES V'
p265
(dp266
g3
F0.022002200220022004
sg4
F0.029344337459880788
sg5
F550981.0
sg6
F800000.0
sg7
F8831913.0
sg8
F1401.0
sg9
F8831913.0
sg10
I00
sg11
F51124.0
sg12
F1787380.0
ssS'FREVERT MARK A'
p267
(dp268
g3
F0.2857142857142857
sg4
F0.07389312977099237
sg5
F17252530.0
sg6
F2000000.0
sg7
F14622185.0
sg8
F2979.0
sg9
F10433518.0
sg10
I00
sg11
F86987.0
sg12
F4188667.0
ssS'PAI LOU L'
p269
(dp270
g3
F0.18405548201274122
sg4
F0.03796297849889601
sg5
F3123383.0
sg6
F1000000.0
sg7
F23817930.0
sg8
F1176.4651162790697
sg9
F15364167.0
sg10
I00
sg11
F32047.0
sg12
F8453763.0
ssS'BAY FRANKLIN R'
p271
(dp272
g3
F0.18405548201274122
sg4
F0.03796297849889601
sg5
F827696.0
sg6
F400000.0
sg7
F63014.0
sg8
F1176.4651162790697
sg9
F2959559.2574257427
sg10
I00
sg11
F129142.0
sg12
F145796.0
ssS'HAYSLETT RODERICK J'
p273
(dp274
g3
F0.03581526861451461
sg4
F0.01321253303133258
sg5
F2623421.1774193547
sg6
F1201773.0740740742
sg7
F346663.0
sg8
F571.0
sg9
F2959559.2574257427
sg10
I00
sg11
F54192.01063829787
sg12
F346663.0
ssS'FUGH JOHN L'
p275
(dp276
g3
F0.18405548201274122
sg4
F0.03796297849889601
sg5
F50591.0
sg6
F1201773.0740740742
sg7
F176378.0
sg8
F1176.4651162790697
sg9
F176378.0
sg10
I00
sg11
F54192.01063829787
sg12
F1147424.0917431193
ssS'FALLON JAMES B'
p277
(dp278
g3
F0.49333333333333335
sg4
F0.023931623931623933
sg5
F3676340.0
sg6
F2500000.0
sg7
F2332399.0
sg8
F1604.0
sg9
F940257.0
sg10
I00
sg11
F95924.0
sg12
F1392142.0
ssS'KOENIG MARK E'
p279
(dp280
g3
F0.2459016393442623
sg4
F0.02232518955349621
sg5
F1587421.0
sg6
F700000.0
sg7
F1920055.0
sg8
F2271.0
sg9
F671737.0
sg10
I01
sg11
F127017.0
sg12
F1248318.0
ssS'SAVAGE FRANK'
p281
(dp282
g3
F0.18405548201274122
sg4
F0.03796297849889601
sg5
F3750.0
sg6
F1201773.0740740742
sg7
F3352073.024
sg8
F1176.4651162790697
sg9
F2959559.2574257427
sg10
I00
sg11
F54192.01063829787
sg12
F1147424.0917431193
ssS'IZZO LAWRENCE L'
p283
(dp284
g3
F0.2631578947368421
sg4
F0.056451612903225805
sg5
F1979596.0
sg6
F1201773.0740740742
sg7
F5819980.0
sg8
F437.0
sg9
F2165172.0
sg10
I00
sg11
F28093.0
sg12
F3654808.0
ssS'TILNEY ELIZABETH A'
p285
(dp286
g3
F0.5789473684210527
sg4
F0.021739130434782608
sg5
F399393.0
sg6
F300000.0
sg7
F1168042.0
sg8
F379.0
sg9
F591250.0
sg10
I00
sg11
F54192.01063829787
sg12
F576792.0
ssS'MARTIN AMANDA K'
p287
(dp288
g3
F0.0
sg4
F0.005256241787122208
sg5
F8407016.0
sg6
F1201773.0740740742
sg7
F2070306.0
sg8
F477.0
sg9
F2070306.0
sg10
I00
sg11
F8211.0
sg12
F1147424.0917431193
ssS'BUY RICHARD B'
p289
(dp290
g3
F0.06742640075973409
sg4
F0.04428044280442804
sg5
F2355702.0
sg6
F900000.0
sg7
F3444470.0
sg8
F2333.0
sg9
F2542813.0
sg10
I00
sg11
F54192.01063829787
sg12
F901657.0
ssS'GRAMM WENDY L'
p291
(dp292
g3
F0.18405548201274122
sg4
F0.03796297849889601
sg5
F119292.0
sg6
F1201773.0740740742
sg7
F3352073.024
sg8
F1176.4651162790697
sg9
F2959559.2574257427
sg10
I00
sg11
F54192.01063829787
sg12
F1147424.0917431193
ssS'CAUSEY RICHARD A'
p293
(dp294
g3
F0.24489795918367346
sg4
F0.0306553911205074
sg5
F1868758.0
sg6
F1000000.0
sg7
F2502063.0
sg8
F1585.0
sg9
F2959559.2574257427
sg10
I01
sg11
F30674.0
sg12
F2502063.0
ssS'TAYLOR MITCHELL S'
p295
(dp296
g3
F0.0
sg4
F0.0
sg5
F1092663.0
sg6
F600000.0
sg7
F3745048.0
sg8
F300.0
sg9
F3181250.0
sg10
I00
sg11
F54192.01063829787
sg12
F563798.0
ssS'DONAHUE JR JEFFREY M'
p297
(dp298
g3
F0.5
sg4
F0.21734104046242775
sg5
F875760.0
sg6
F800000.0
sg7
F1080988.0
sg8
F772.0
sg9
F765920.0
sg10
I00
sg11
F96268.0
sg12
F315068.0
ssS'GLISAN JR BEN F'
p299
(dp300
g3
F0.375
sg4
F0.05956471935853379
sg5
F1272284.0
sg6
F600000.0
sg7
F778546.0
sg8
F874.0
sg9
F384728.0
sg10
I01
sg11
F125978.0
sg12
F393818.0
ss.