(lp0
Vpoi
p1
aVtotal_payments
p2
aVexercised_stock_options
p3
aVbonus
p4
aVrestricted_stock
p5
aVshared_receipt_with_poi
p6
aVtotal_stock_value
p7
aVexpenses
p8
aVpercent_messages_to_poi
p9
aVpercent_messages_from_poi
p10
a.